(dp0
S'MTs'
p1
cnumpy.core.multiarray
_reconstruct
p2
(cnumpy
ndarray
p3
(I0
tp4
S'b'
p5
tp6
Rp7
(I1
(I6
I1
tp8
cnumpy
dtype
p9
(S'f8'
p10
I0
I1
tp11
Rp12
(I3
S'<'
p13
NNNI-1
I-1
I0
tp14
bI00
S'D0:\xcfT\x82X@\x87H?\x93^\xd6}@\xf83\xe3\xfb\xd8AA@8P\x11\xbf\x1d\x1fs@<\xc5\xa5(\xa6aS@\x89\xde\x04p\x0cgj\xc0'
p15
tp16
bsS'MTp'
p17
g2
(g3
(I0
tp18
g5
tp19
Rp20
(I1
(I1
tp21
g12
I00
S'\xcb~\t\x01\xc7\xfc\xe4?'
p22
tp23
bsS'uid'
p24
S'20090121042009185230'
p25
sS'stations'
p26
(lp27
(lp28
g2
(g3
(I0
tp29
g5
tp30
Rp31
(I1
(I1
tp32
g9
(S'S4'
p33
I0
I1
tp34
Rp35
(I3
S'|'
p36
NNNI4
I1
I0
tp37
bI00
S'ST07'
p38
tp39
bag2
(g3
(I0
tp40
g5
tp41
Rp42
(I1
(I1
I1
tp43
g12
I00
S'\x1f\x85\xebQ\xb8\x8eP@'
p44
tp45
bag2
(g3
(I0
tp46
g5
tp47
Rp48
(I1
(I1
I1
tp49
g12
I00
S'\x9a\x99\x99\x99\x99\x99O@'
p50
tp51
bag2
(g3
(I0
tp52
g5
tp53
Rp54
(I1
(I1
I1
tp55
g9
(S'i8'
p56
I0
I1
tp57
Rp58
(I3
S'<'
p59
NNNI-1
I-1
I0
tp60
bI00
S'\x00\x00\x00\x00\x00\x00\x00\x00'
p61
tp62
baa(lp63
g2
(g3
(I0
tp64
g5
tp65
Rp66
(I1
(I1
tp67
g9
(S'S4'
p68
I0
I1
tp69
Rp70
(I3
S'|'
p71
NNNI4
I1
I0
tp72
bI00
S'ST01'
p73
tp74
bag2
(g3
(I0
tp75
g5
tp76
Rp77
(I1
(I1
I1
tp78
g12
I00
S'\xa4p=\n\xd7\x0br@'
p79
tp80
bag2
(g3
(I0
tp81
g5
tp82
Rp83
(I1
(I1
I1
tp84
g12
I00
S'\x00\x00\x00\x00\x00\x807@'
p85
tp86
bag2
(g3
(I0
tp87
g5
tp88
Rp89
(I1
(I1
I1
tp90
g58
I00
S'\x00\x00\x00\x00\x00\x00\x00\x00'
p91
tp92
baa(lp93
g2
(g3
(I0
tp94
g5
tp95
Rp96
(I1
(I1
tp97
g9
(S'S4'
p98
I0
I1
tp99
Rp100
(I3
S'|'
p101
NNNI4
I1
I0
tp102
bI00
S'ST03'
p103
tp104
bag2
(g3
(I0
tp105
g5
tp106
Rp107
(I1
(I1
I1
tp108
g12
I00
S'\xd7\xa3p=\n\xcfe@'
p109
tp110
bag2
(g3
(I0
tp111
g5
tp112
Rp113
(I1
(I1
I1
tp114
g12
I00
S'\x98\x99\x99\x99\x99\xd9A@'
p115
tp116
bag2
(g3
(I0
tp117
g5
tp118
Rp119
(I1
(I1
I1
tp120
g58
I00
S'\x00\x00\x00\x00\x00\x00\x00\x00'
p121
tp122
baa(lp123
g2
(g3
(I0
tp124
g5
tp125
Rp126
(I1
(I1
tp127
g9
(S'S4'
p128
I0
I1
tp129
Rp130
(I3
S'|'
p131
NNNI4
I1
I0
tp132
bI00
S'ST02'
p133
tp134
bag2
(g3
(I0
tp135
g5
tp136
Rp137
(I1
(I1
I1
tp138
g12
I00
S')\\\x8f\xc2\xf50j@'
p139
tp140
bag2
(g3
(I0
tp141
g5
tp142
Rp143
(I1
(I1
I1
tp144
g12
I00
S'\x00\x00\x00\x00\x00\x803@'
p145
tp146
bag2
(g3
(I0
tp147
g5
tp148
Rp149
(I1
(I1
I1
tp150
g58
I00
S'\x00\x00\x00\x00\x00\x00\x00\x00'
p151
tp152
baa(lp153
g2
(g3
(I0
tp154
g5
tp155
Rp156
(I1
(I1
tp157
g9
(S'S4'
p158
I0
I1
tp159
Rp160
(I3
S'|'
p161
NNNI4
I1
I0
tp162
bI00
S'ST05'
p163
tp164
bag2
(g3
(I0
tp165
g5
tp166
Rp167
(I1
(I1
I1
tp168
g12
I00
S'\n\xd7\xa3p=\x92l@'
p169
tp170
bag2
(g3
(I0
tp171
g5
tp172
Rp173
(I1
(I1
I1
tp174
g12
I00
S'hffff&C@'
p175
tp176
bag2
(g3
(I0
tp177
g5
tp178
Rp179
(I1
(I1
I1
tp180
g58
I00
S'\x00\x00\x00\x00\x00\x00\x00\x00'
p181
tp182
baa(lp183
g2
(g3
(I0
tp184
g5
tp185
Rp186
(I1
(I1
tp187
g9
(S'S4'
p188
I0
I1
tp189
Rp190
(I3
S'|'
p191
NNNI4
I1
I0
tp192
bI00
S'ST04'
p193
tp194
bag2
(g3
(I0
tp195
g5
tp196
Rp197
(I1
(I1
I1
tp198
g12
I00
S'\x14\xaeG\xe1z\x84Y@'
p199
tp200
bag2
(g3
(I0
tp201
g5
tp202
Rp203
(I1
(I1
I1
tp204
g12
I00
S'\x98\x99\x99\x99\x99\x190@'
p205
tp206
bag2
(g3
(I0
tp207
g5
tp208
Rp209
(I1
(I1
I1
tp210
g58
I00
S'\x00\x00\x00\x00\x00\x00\x00\x00'
p211
tp212
baa(lp213
g2
(g3
(I0
tp214
g5
tp215
Rp216
(I1
(I1
tp217
g9
(S'S4'
p218
I0
I1
tp219
Rp220
(I3
S'|'
p221
NNNI4
I1
I0
tp222
bI00
S'ST10'
p223
tp224
bag2
(g3
(I0
tp225
g5
tp226
Rp227
(I1
(I1
I1
tp228
g12
I00
S'q=\n\xd7\xa3\x00Q@'
p229
tp230
bag2
(g3
(I0
tp231
g5
tp232
Rp233
(I1
(I1
I1
tp234
g12
I00
S'\x00\x00\x00\x00\x00\x00L@'
p235
tp236
bag2
(g3
(I0
tp237
g5
tp238
Rp239
(I1
(I1
I1
tp240
g58
I00
S'\x00\x00\x00\x00\x00\x00\x00\x00'
p241
tp242
baa(lp243
g2
(g3
(I0
tp244
g5
tp245
Rp246
(I1
(I1
tp247
g9
(S'S4'
p248
I0
I1
tp249
Rp250
(I3
S'|'
p251
NNNI4
I1
I0
tp252
bI00
S'ST06'
p253
tp254
bag2
(g3
(I0
tp255
g5
tp256
Rp257
(I1
(I1
I1
tp258
g12
I00
S'\xcd\xcc\xcc\xcc\xccLP@'
p259
tp260
bag2
(g3
(I0
tp261
g5
tp262
Rp263
(I1
(I1
I1
tp264
g12
I00
S'\x9a\x99\x99\x99\x99\xf9P@'
p265
tp266
bag2
(g3
(I0
tp267
g5
tp268
Rp269
(I1
(I1
I1
tp270
g58
I00
S'\x00\x00\x00\x00\x00\x00\x00\x00'
p271
tp272
baa(lp273
g2
(g3
(I0
tp274
g5
tp275
Rp276
(I1
(I1
tp277
g9
(S'S4'
p278
I0
I1
tp279
Rp280
(I3
S'|'
p281
NNNI4
I1
I0
tp282
bI00
S'ST09'
p283
tp284
bag2
(g3
(I0
tp285
g5
tp286
Rp287
(I1
(I1
I1
tp288
g12
I00
S'\xcd\xcc\xcc\xcc\xcc\x1cT@'
p289
tp290
bag2
(g3
(I0
tp291
g5
tp292
Rp293
(I1
(I1
I1
tp294
g12
I00
S'\x9a\x99\x99\x99\x99\x19P@'
p295
tp296
bag2
(g3
(I0
tp297
g5
tp298
Rp299
(I1
(I1
I1
tp300
g58
I00
S'\x00\x00\x00\x00\x00\x00\x00\x00'
p301
tp302
baa(lp303
g2
(g3
(I0
tp304
g5
tp305
Rp306
(I1
(I1
tp307
g9
(S'S4'
p308
I0
I1
tp309
Rp310
(I3
S'|'
p311
NNNI4
I1
I0
tp312
bI00
S'ST08'
p313
tp314
bag2
(g3
(I0
tp315
g5
tp316
Rp317
(I1
(I1
I1
tp318
g12
I00
S'q=\n\xd7\xa3\xb0I@'
p319
tp320
bag2
(g3
(I0
tp321
g5
tp322
Rp323
(I1
(I1
I1
tp324
g12
I00
S'43333\xb3O@'
p325
tp326
bag2
(g3
(I0
tp327
g5
tp328
Rp329
(I1
(I1
I1
tp330
g58
I00
S'\x00\x00\x00\x00\x00\x00\x00\x00'
p331
tp332
baas.